target datalayout = "e-m:e-p270:32:32-p271:32:32-p272:64:64-i64:64-i128:128-f80:128-n8:16:32:64-S128"
target triple = "x86_64-pc-linux-gnu"

; Function Attrs: alwaysinline nounwind willreturn memory(none) uwtable
define internal i32 @av_clip_c(i32 noundef %0, i32 noundef %1, i32 noundef %2) #8 {
  %4 = alloca i32, align 4
  %5 = alloca i32, align 4
  %6 = alloca i32, align 4
  %7 = alloca i32, align 4
  store i32 %0, ptr %5, align 4, !tbaa !49
  store i32 %1, ptr %6, align 4, !tbaa !49
  store i32 %2, ptr %7, align 4, !tbaa !49
  %8 = load i32, ptr %5, align 4, !tbaa !49
  %9 = load i32, ptr %6, align 4, !tbaa !49
  %10 = icmp slt i32 %8, %9
  br i1 %10, label %11, label %13

11:                                               ; preds = %3
  %12 = load i32, ptr %6, align 4, !tbaa !49
  store i32 %12, ptr %4, align 4
  br label %21

13:                                               ; preds = %3
  %14 = load i32, ptr %5, align 4, !tbaa !49
  %15 = load i32, ptr %7, align 4, !tbaa !49
  %16 = icmp sgt i32 %14, %15
  br i1 %16, label %17, label %19

17:                                               ; preds = %13
  %18 = load i32, ptr %7, align 4, !tbaa !49
  store i32 %18, ptr %4, align 4
  br label %21

19:                                               ; preds = %13
  %20 = load i32, ptr %5, align 4, !tbaa !49
  store i32 %20, ptr %4, align 4
  br label %21

21:                                               ; preds = %19, %17, %11
  %22 = load i32, ptr %4, align 4
  ret i32 %22
}

; Function Attrs: nounwind uwtable
define internal void @draw_sample_line_rgba_scale(ptr noundef %0, i32 noundef %1, i32 noundef %2, ptr noundef %3, ptr noundef %4, i32 noundef %5) #1 {
  %7 = alloca ptr, align 8
  %8 = alloca i32, align 4
  %9 = alloca i32, align 4
  %10 = alloca ptr, align 8
  %11 = alloca ptr, align 8
  %12 = alloca i32, align 4
  %13 = alloca i32, align 4
  %14 = alloca i32, align 4
  %15 = alloca ptr, align 8
  %16 = alloca i16, align 2
  %17 = alloca i32, align 4
  store ptr %0, ptr %7, align 8, !tbaa !69
  store i32 %1, ptr %8, align 4, !tbaa !49
  store i32 %2, ptr %9, align 4, !tbaa !49
  store ptr %3, ptr %10, align 8, !tbaa !92
  store ptr %4, ptr %11, align 8, !tbaa !69
  store i32 %5, ptr %12, align 4, !tbaa !49
  call void @llvm.lifetime.start.p0(i64 4, ptr %13) #13
  %18 = load i32, ptr %8, align 4, !tbaa !49
  %19 = sdiv i32 %18, 2
  store i32 %19, ptr %13, align 4, !tbaa !49
  call void @llvm.lifetime.start.p0(i64 4, ptr %14) #13
  %20 = load i32, ptr %12, align 4, !tbaa !49
  %21 = load i32, ptr %8, align 4, !tbaa !49
  %22 = sub nsw i32 %21, 1
  %23 = call i32 @av_clip_c(i32 noundef %20, i32 noundef 0, i32 noundef %22) #15
  store i32 %23, ptr %14, align 4, !tbaa !49
  call void @llvm.lifetime.start.p0(i64 8, ptr %15) #13
  %24 = load i32, ptr %13, align 4, !tbaa !49
  %25 = load i32, ptr %14, align 4, !tbaa !49
  %26 = icmp sgt i32 %24, %25
  br i1 %26, label %27, label %36

27:                                               ; preds = %6
  br label %28

28:                                               ; preds = %27
  call void @llvm.lifetime.start.p0(i64 2, ptr %16) #13
  %29 = load i32, ptr %14, align 4, !tbaa !49
  %30 = trunc i32 %29 to i16
  store i16 %30, ptr %16, align 2, !tbaa !93
  %31 = load i32, ptr %13, align 4, !tbaa !49
  store i32 %31, ptr %14, align 4, !tbaa !49
  %32 = load i16, ptr %16, align 2, !tbaa !93
  %33 = sext i16 %32 to i32
  store i32 %33, ptr %13, align 4, !tbaa !49
  call void @llvm.lifetime.end.p0(i64 2, ptr %16) #13
  br label %34

34:                                               ; preds = %28
  br label %35

35:                                               ; preds = %34
  br label %36

36:                                               ; preds = %35, %6
  %37 = load ptr, ptr %7, align 8, !tbaa !69
  %38 = load i32, ptr %13, align 4, !tbaa !49
  %39 = load i32, ptr %9, align 4, !tbaa !49
  %40 = mul nsw i32 %38, %39
  %41 = sext i32 %40 to i64
  %42 = getelementptr inbounds i8, ptr %37, i64 %41
  store ptr %42, ptr %15, align 8, !tbaa !69
  call void @llvm.lifetime.start.p0(i64 4, ptr %17) #13
  %43 = load i32, ptr %13, align 4, !tbaa !49
  store i32 %43, ptr %17, align 4, !tbaa !49
  br label %44

44:                                               ; preds = %90, %36
  %45 = load i32, ptr %17, align 4, !tbaa !49
  %46 = load i32, ptr %14, align 4, !tbaa !49
  %47 = icmp slt i32 %45, %46
  br i1 %47, label %49, label %48

48:                                               ; preds = %44
  call void @llvm.lifetime.end.p0(i64 4, ptr %17) #13
  br label %97

49:                                               ; preds = %44
  %50 = load ptr, ptr %11, align 8, !tbaa !69
  %51 = getelementptr inbounds i8, ptr %50, i64 0
  %52 = load i8, ptr %51, align 1, !tbaa !89
  %53 = zext i8 %52 to i32
  %54 = load ptr, ptr %15, align 8, !tbaa !69
  %55 = getelementptr inbounds i8, ptr %54, i64 0
  %56 = load i8, ptr %55, align 1, !tbaa !89
  %57 = zext i8 %56 to i32
  %58 = add nsw i32 %57, %53
  %59 = trunc i32 %58 to i8
  store i8 %59, ptr %55, align 1, !tbaa !89
  %60 = load ptr, ptr %11, align 8, !tbaa !69
  %61 = getelementptr inbounds i8, ptr %60, i64 1
  %62 = load i8, ptr %61, align 1, !tbaa !89
  %63 = zext i8 %62 to i32
  %64 = load ptr, ptr %15, align 8, !tbaa !69
  %65 = getelementptr inbounds i8, ptr %64, i64 1
  %66 = load i8, ptr %65, align 1, !tbaa !89
  %67 = zext i8 %66 to i32
  %68 = add nsw i32 %67, %63
  %69 = trunc i32 %68 to i8
  store i8 %69, ptr %65, align 1, !tbaa !89
  %70 = load ptr, ptr %11, align 8, !tbaa !69
  %71 = getelementptr inbounds i8, ptr %70, i64 2
  %72 = load i8, ptr %71, align 1, !tbaa !89
  %73 = zext i8 %72 to i32
  %74 = load ptr, ptr %15, align 8, !tbaa !69
  %75 = getelementptr inbounds i8, ptr %74, i64 2
  %76 = load i8, ptr %75, align 1, !tbaa !89
  %77 = zext i8 %76 to i32
  %78 = add nsw i32 %77, %73
  %79 = trunc i32 %78 to i8
  store i8 %79, ptr %75, align 1, !tbaa !89
  %80 = load ptr, ptr %11, align 8, !tbaa !69
  %81 = getelementptr inbounds i8, ptr %80, i64 3
  %82 = load i8, ptr %81, align 1, !tbaa !89
  %83 = zext i8 %82 to i32
  %84 = load ptr, ptr %15, align 8, !tbaa !69
  %85 = getelementptr inbounds i8, ptr %84, i64 3
  %86 = load i8, ptr %85, align 1, !tbaa !89
  %87 = zext i8 %86 to i32
  %88 = add nsw i32 %87, %83
  %89 = trunc i32 %88 to i8
  store i8 %89, ptr %85, align 1, !tbaa !89
  br label %90

90:                                               ; preds = %49
  %91 = load i32, ptr %17, align 4, !tbaa !49
  %92 = add nsw i32 %91, 1
  store i32 %92, ptr %17, align 4, !tbaa !49
  %93 = load i32, ptr %9, align 4, !tbaa !49
  %94 = load ptr, ptr %15, align 8, !tbaa !69
  %95 = sext i32 %93 to i64
  %96 = getelementptr inbounds i8, ptr %94, i64 %95
  store ptr %96, ptr %15, align 8, !tbaa !69
  br label %44, !llvm.loop !98

97:                                               ; preds = %48
  call void @llvm.lifetime.end.p0(i64 8, ptr %15) #13
  call void @llvm.lifetime.end.p0(i64 4, ptr %14) #13
  call void @llvm.lifetime.end.p0(i64 4, ptr %13) #13
  ret void
}