; Function Attrs: nofree norecurse nosync nounwind memory(argmem: readwrite) uwtable
define internal void @draw_sample_line_rgba_scale(ptr noundef captures(none) %0, i32 noundef %1, i32 noundef %2, ptr readnone captures(none) %3, ptr noundef readonly captures(none) %4, i32 noundef %5) #7 {
  %7 = sdiv i32 %1, 2
  %8 = add nsw i32 %1, -1
  %9 = icmp slt i32 %5, 0
  %..i = tail call i32 @llvm.smin.i32(i32 %5, i32 %8)
  %.0.i = select i1 %9, i32 0, i32 %..i
  %10 = icmp sgt i32 %7, %.0.i
  %sext = shl i32 %.0.i, 16
  %11 = ashr exact i32 %sext, 16
  %.026 = tail call i32 @llvm.smax.i32(i32 %7, i32 %.0.i)
  %.024 = select i1 %10, i32 %11, i32 %7
  %12 = icmp slt i32 %.024, %.026
  br i1 %12, label %.lver.check, label %._crit_edge

.lver.check:                                      ; preds = %6
  %13 = mul nsw i32 %.024, %2
  %14 = sext i32 %13 to i64
  %15 = getelementptr inbounds i8, ptr %0, i64 %14
  %16 = getelementptr inbounds nuw i8, ptr %4, i64 1
  %17 = getelementptr inbounds nuw i8, ptr %4, i64 2
  %18 = getelementptr inbounds nuw i8, ptr %4, i64 3
  %19 = sext i32 %2 to i64
  %ident.check.not = icmp eq i32 %2, 1
  br i1 %ident.check.not, label %.ph, label %.ph.lver.orig

.ph.lver.orig:                                    ; preds = %.lver.check, %.ph.lver.orig
  %.031.lver.orig = phi i32 [ %35, %.ph.lver.orig ], [ %.024, %.lver.check ]
  %.02530.lver.orig = phi ptr [ %36, %.ph.lver.orig ], [ %15, %.lver.check ]
  %20 = load i8, ptr %4, align 1, !tbaa !96
  %21 = load i8, ptr %.02530.lver.orig, align 1, !tbaa !96
  %22 = add i8 %21, %20
  store i8 %22, ptr %.02530.lver.orig, align 1, !tbaa !96
  %23 = load i8, ptr %16, align 1, !tbaa !96
  %24 = getelementptr inbounds nuw i8, ptr %.02530.lver.orig, i64 1
  %25 = load i8, ptr %24, align 1, !tbaa !96
  %26 = add i8 %25, %23
  store i8 %26, ptr %24, align 1, !tbaa !96
  %27 = load i8, ptr %17, align 1, !tbaa !96
  %28 = getelementptr inbounds nuw i8, ptr %.02530.lver.orig, i64 2
  %29 = load i8, ptr %28, align 1, !tbaa !96
  %30 = add i8 %29, %27
  store i8 %30, ptr %28, align 1, !tbaa !96
  %31 = load i8, ptr %18, align 1, !tbaa !96
  %32 = getelementptr inbounds nuw i8, ptr %.02530.lver.orig, i64 3
  %33 = load i8, ptr %32, align 1, !tbaa !96
  %34 = add i8 %33, %31
  store i8 %34, ptr %32, align 1, !tbaa !96
  %35 = add nsw i32 %.031.lver.orig, 1
  %36 = getelementptr inbounds i8, ptr %.02530.lver.orig, i64 %19
  %exitcond.not.lver.orig = icmp eq i32 %35, %.026
  br i1 %exitcond.not.lver.orig, label %._crit_edge, label %.ph.lver.orig, !llvm.loop !102

.ph:                                              ; preds = %.lver.check
  %37 = sext i32 %.024 to i64
  %38 = getelementptr i8, ptr %0, i64 %37
  %scevgep = getelementptr i8, ptr %38, i64 2
  %load_initial = load i8, ptr %scevgep, align 1
  br label %39

._crit_edge:                                      ; preds = %.ph.lver.orig, %39, %6
  ret void

39:                                               ; preds = %.ph, %39
  %store_forwarded = phi i8 [ %load_initial, %.ph ], [ %53, %39 ]
  %.031 = phi i32 [ %.024, %.ph ], [ %54, %39 ]
  %.02530 = phi ptr [ %15, %.ph ], [ %55, %39 ]
  %40 = load i8, ptr %4, align 1, !tbaa !96
  %41 = load i8, ptr %.02530, align 1, !tbaa !96
  %42 = add i8 %41, %40
  store i8 %42, ptr %.02530, align 1, !tbaa !96
  %43 = load i8, ptr %16, align 1, !tbaa !96
  %44 = getelementptr inbounds nuw i8, ptr %.02530, i64 1
  %45 = load i8, ptr %44, align 1, !tbaa !96
  %46 = add i8 %45, %43
  store i8 %46, ptr %44, align 1, !tbaa !96
  %47 = load i8, ptr %17, align 1, !tbaa !96
  %48 = getelementptr inbounds nuw i8, ptr %.02530, i64 2
  %49 = add i8 %store_forwarded, %47
  store i8 %49, ptr %48, align 1, !tbaa !96
  %50 = load i8, ptr %18, align 1, !tbaa !96
  %51 = getelementptr inbounds nuw i8, ptr %.02530, i64 3
  %52 = load i8, ptr %51, align 1, !tbaa !96
  %53 = add i8 %52, %50
  store i8 %53, ptr %51, align 1, !tbaa !96
  %54 = add nsw i32 %.031, 1
  %55 = getelementptr inbounds nuw i8, ptr %.02530, i64 %19
  %exitcond.not = icmp eq i32 %54, %.026
  br i1 %exitcond.not, label %._crit_edge, label %39, !llvm.loop !102
}